; Function Attrs: nofree norecurse nosync nounwind memory(argmem: readwrite) uwtable
define internal void @loop_filter_h_48_16_c(ptr noundef captures(none) %0, i64 noundef %1, i32 noundef %2, i32 noundef %3, i32 noundef %4) #3 {
  %6 = and i32 %2, 255
  %7 = and i32 %3, 255
  %8 = and i32 %4, 255
  tail call void @loop_filter_h_4_8_c(ptr noundef %0, i64 noundef %1, i32 noundef %6, i32 noundef %7, i32 noundef %8)
  %9 = shl nsw i64 %1, 3
  %10 = getelementptr inbounds i8, ptr %0, i64 %9
  %11 = ashr i32 %2, 8
  %12 = ashr i32 %3, 8
  %13 = ashr i32 %4, 8
  tail call void @loop_filter_h_8_8_c(ptr noundef %10, i64 noundef %1, i32 noundef %11, i32 noundef %12, i32 noundef %13)
  ret void
}